target datalayout = "e-m:e-p270:32:32-p271:32:32-p272:64:64-i64:64-i128:128-f80:128-n8:16:32:64-S128"
target triple = "x86_64-pc-linux-gnu"

%struct.expert_field = type { i32, i32 }

@ei_pn_io_block_version = internal global %struct.expert_field zeroinitializer, align 4
@.str.1317 = private unnamed_addr constant [41 x i8] c"Block version %u.%u not implemented yet!\00", align 1

; Function Attrs: nounwind uwtable
define hidden i32 @dissect_blocks(ptr noundef %0, i32 noundef %1, ptr noundef %2, ptr noundef %3, ptr noundef %4) #0 {
  %6 = alloca ptr, align 8
  %7 = alloca i32, align 4
  %8 = alloca ptr, align 8
  %9 = alloca ptr, align 8
  %10 = alloca ptr, align 8
  %11 = alloca i16, align 2
  %12 = alloca i32, align 4
  %13 = alloca ptr, align 8
  store ptr %0, ptr %6, align 8
  store i32 %1, ptr %7, align 4
  store ptr %2, ptr %8, align 8
  store ptr %3, ptr %9, align 8
  store ptr %4, ptr %10, align 8
  store i16 0, ptr %11, align 2
  store ptr null, ptr %13, align 8
  br label %14

14:                                               ; preds = %19, %5
  %15 = load ptr, ptr %6, align 8
  %16 = call i32 @tvb_captured_length(ptr noundef %15)
  %17 = load i32, ptr %7, align 4
  %18 = icmp ugt i32 %16, %17
  br i1 %18, label %19, label %28

19:                                               ; preds = %14
  %20 = load ptr, ptr %6, align 8
  %21 = load i32, ptr %7, align 4
  %22 = load ptr, ptr %8, align 8
  %23 = load ptr, ptr %9, align 8
  %24 = load ptr, ptr %10, align 8
  %25 = call i32 @dissect_block(ptr noundef %20, i32 noundef %21, ptr noundef %22, ptr noundef %23, ptr noundef %24, ptr noundef %11, ptr noundef %12, ptr noundef %13)
  store i32 %25, ptr %7, align 4
  %26 = load i16, ptr %11, align 2
  %27 = add i16 %26, 1
  store i16 %27, ptr %11, align 2
  br label %14, !llvm.loop !4

28:                                               ; preds = %14
  %29 = load ptr, ptr %13, align 8
  %30 = icmp ne ptr %29, null
  br i1 %30, label %31, label %36

31:                                               ; preds = %28
  %32 = load ptr, ptr %6, align 8
  %33 = load ptr, ptr %8, align 8
  %34 = load ptr, ptr %9, align 8
  %35 = load ptr, ptr %13, align 8
  call void @pnio_ar_info(ptr noundef %32, ptr noundef %33, ptr noundef %34, ptr noundef %35)
  br label %36

36:                                               ; preds = %31, %28
  %37 = load i32, ptr %7, align 4
  ret i32 %37
}

; Function Attrs: nounwind uwtable
define internal i32 @dissect_PDInterfaceFSUDataAdjust_block(ptr noundef %0, i32 noundef %1, ptr noundef %2, ptr noundef %3, ptr noundef %4, ptr noundef %5, i8 noundef zeroext %6, i8 noundef zeroext %7, i16 noundef zeroext %8) #0 {
  %10 = alloca i32, align 4
  %11 = alloca ptr, align 8
  %12 = alloca i32, align 4
  %13 = alloca ptr, align 8
  %14 = alloca ptr, align 8
  %15 = alloca ptr, align 8
  %16 = alloca ptr, align 8
  %17 = alloca i8, align 1
  %18 = alloca i8, align 1
  %19 = alloca i16, align 2
  %20 = alloca ptr, align 8
  store ptr %0, ptr %11, align 8
  store i32 %1, ptr %12, align 4
  store ptr %2, ptr %13, align 8
  store ptr %3, ptr %14, align 8
  store ptr %4, ptr %15, align 8
  store ptr %5, ptr %16, align 8
  store i8 %6, ptr %17, align 1
  store i8 %7, ptr %18, align 1
  store i16 %8, ptr %19, align 2
  %21 = load i8, ptr %17, align 1
  %22 = zext i8 %21 to i32
  %23 = icmp ne i32 %22, 1
  br i1 %23, label %28, label %24

24:                                               ; preds = %9
  %25 = load i8, ptr %18, align 1
  %26 = zext i8 %25 to i32
  %27 = icmp ne i32 %26, 0
  br i1 %27, label %28, label %37

28:                                               ; preds = %24, %9
  %29 = load ptr, ptr %13, align 8
  %30 = load ptr, ptr %15, align 8
  %31 = load i8, ptr %17, align 1
  %32 = zext i8 %31 to i32
  %33 = load i8, ptr %18, align 1
  %34 = zext i8 %33 to i32
  %35 = call ptr (ptr, ptr, ptr, ptr, ...) @expert_add_info_format(ptr noundef %29, ptr noundef %30, ptr noundef @ei_pn_io_block_version, ptr noundef @.str.1317, i32 noundef %32, i32 noundef %34)
  %36 = load i32, ptr %12, align 4
  store i32 %36, ptr %10, align 4
  br label %62

37:                                               ; preds = %24
  %38 = load ptr, ptr %11, align 8
  %39 = load i32, ptr %12, align 4
  %40 = load ptr, ptr %13, align 8
  %41 = load ptr, ptr %14, align 8
  %42 = call i32 @dissect_pn_padding(ptr noundef %38, i32 noundef %39, ptr noundef %40, ptr noundef %41, i32 noundef 2)
  store i32 %42, ptr %12, align 4
  %43 = load i16, ptr %19, align 2
  %44 = zext i16 %43 to i32
  %45 = sub i32 %44, 2
  %46 = trunc i32 %45 to i16
  store i16 %46, ptr %19, align 2
  %47 = load ptr, ptr %11, align 8
  %48 = load i32, ptr %12, align 4
  %49 = load i16, ptr %19, align 2
  %50 = zext i16 %49 to i32
  %51 = call ptr @tvb_new_subset_length(ptr noundef %47, i32 noundef %48, i32 noundef %50)
  store ptr %51, ptr %20, align 8
  %52 = load ptr, ptr %20, align 8
  %53 = load ptr, ptr %13, align 8
  %54 = load ptr, ptr %14, align 8
  %55 = load ptr, ptr %16, align 8
  %56 = call i32 @dissect_blocks(ptr noundef %52, i32 noundef 0, ptr noundef %53, ptr noundef %54, ptr noundef %55)
  %57 = load i16, ptr %19, align 2
  %58 = zext i16 %57 to i32
  %59 = load i32, ptr %12, align 4
  %60 = add i32 %59, %58
  store i32 %60, ptr %12, align 4
  %61 = load i32, ptr %12, align 4
  store i32 %61, ptr %10, align 4
  br label %62

62:                                               ; preds = %37, %28
  %63 = load i32, ptr %10, align 4
  ret i32 %63
}