; Function Attrs: nounwind uwtable
define internal fastcc void @dissect_PDInterfaceFSUDataAdjust_block(ptr noundef %0, i32 noundef %1, ptr noundef %2, ptr noundef %3, ptr noundef %4, ptr noundef %5, i8 noundef zeroext %6, i8 noundef zeroext %7, i16 noundef zeroext %8) unnamed_addr #0 {
  %10 = alloca i16, align 2
  %11 = alloca i32, align 4
  %12 = alloca ptr, align 8
  %13 = icmp ne i8 %6, 1
  %14 = icmp ne i8 %7, 0
  %or.cond = or i1 %13, %14
  br i1 %or.cond, label %15, label %19

15:                                               ; preds = %9
  %16 = zext i8 %7 to i32
  %17 = zext i8 %6 to i32
  %18 = tail call ptr (ptr, ptr, ptr, ptr, ...) @expert_add_info_format(ptr noundef %2, ptr noundef %4, ptr noundef nonnull @ei_pn_io_block_version, ptr noundef nonnull @.str.1317, i32 noundef %17, i32 noundef %16) #11
  br label %31

19:                                               ; preds = %9
  %20 = tail call i32 @dissect_pn_padding(ptr noundef %0, i32 noundef %1, ptr noundef %2, ptr noundef %3, i32 noundef 2) #11
  %21 = add i16 %8, -2
  %22 = zext i16 %21 to i32
  %23 = tail call ptr @tvb_new_subset_length(ptr noundef %0, i32 noundef %20, i32 noundef %22) #11
  call void @llvm.lifetime.start.p0(i64 2, ptr nonnull %10)
  call void @llvm.lifetime.start.p0(i64 4, ptr nonnull %11)
  call void @llvm.lifetime.start.p0(i64 8, ptr nonnull %12)
  store i16 0, ptr %10, align 2
  store ptr null, ptr %12, align 8
  %24 = tail call i32 @tvb_captured_length(ptr noundef %23) #11
  %.not = icmp eq i32 %24, 0
  br i1 %.not, label %dissect_blocks.exit, label %.lr.ph

.lr.ph:                                           ; preds = %19, %.lr.ph
  %.0.i24 = phi i32 [ %25, %.lr.ph ], [ 0, %19 ]
  %25 = call fastcc i32 @dissect_block(ptr noundef %23, i32 noundef %.0.i24, ptr noundef %2, ptr noundef %3, ptr noundef %5, ptr noundef %10, ptr noundef %11, ptr noundef %12)
  %26 = load i16, ptr %10, align 2
  %27 = add i16 %26, 1
  store i16 %27, ptr %10, align 2
  %28 = call i32 @tvb_captured_length(ptr noundef %23) #11
  %29 = icmp ugt i32 %28, %25
  br i1 %29, label %.lr.ph, label %._crit_edge, !llvm.loop !4

._crit_edge:                                      ; preds = %.lr.ph
  %.pre = load ptr, ptr %12, align 8
  %.not.i = icmp eq ptr %.pre, null
  br i1 %.not.i, label %dissect_blocks.exit, label %30

30:                                               ; preds = %._crit_edge
  call fastcc void @pnio_ar_info(ptr noundef %23, ptr noundef %2, ptr noundef %3, ptr noundef %.pre)
  br label %dissect_blocks.exit

dissect_blocks.exit:                              ; preds = %19, %._crit_edge, %30
  call void @llvm.lifetime.end.p0(i64 2, ptr nonnull %10)
  call void @llvm.lifetime.end.p0(i64 4, ptr nonnull %11)
  call void @llvm.lifetime.end.p0(i64 8, ptr nonnull %12)
  br label %31

31:                                               ; preds = %dissect_blocks.exit, %15
  ret void
}